; Function Attrs: null_pointer_is_valid sspstrong uwtable
define internal fastcc noundef i32 @dissect_rsl_ie_paging_load(ptr noundef %0, ptr noundef %1, i32 noundef %2) unnamed_addr #0 {
  %4 = tail call zeroext i8 @tvb_get_uint8(ptr noundef %0, i32 noundef %2)
  %.not = icmp eq i8 %4, 15
  br i1 %.not, label %5, label %14

5:                                                ; preds = %3
  %6 = load i32, ptr @ett_ie_paging_load, align 4
  %7 = tail call ptr @proto_tree_add_subtree(ptr noundef %1, ptr noundef %0, i32 noundef %2, i32 noundef 3, i32 noundef %6, ptr noundef null, ptr noundef nonnull @.str.765)
  %8 = load i32, ptr @hf_rsl_ie_id, align 4
  %9 = tail call ptr @proto_tree_add_item(ptr noundef %7, i32 noundef %8, ptr noundef %0, i32 noundef %2, i32 noundef 1, i32 noundef 0)
  %10 = add i32 %2, 1
  %11 = load i32, ptr @hf_rsl_paging_load, align 4
  %12 = tail call ptr @proto_tree_add_item(ptr noundef %7, i32 noundef %11, ptr noundef %0, i32 noundef %10, i32 noundef 2, i32 noundef 0)
  %13 = add i32 %2, 3
  br label %14

14:                                               ; preds = %3, %5
  %.0 = phi i32 [ %13, %5 ], [ %2, %3 ]
  ret i32 %.0
}